target datalayout = "e-m:e-p270:32:32-p271:32:32-p272:64:64-i64:64-i128:128-f80:128-n8:16:32:64-S128"
target triple = "x86_64-unknown-linux-gnu"

%struct.QemuMutex = type { %union.pthread_mutex_t, i8 }
%union.pthread_mutex_t = type { %struct.__pthread_mutex_s }
%struct.__pthread_mutex_s = type { i32, i32, i32, i32, i32, i16, i16, %struct.__pthread_internal_list }
%struct.__pthread_internal_list = type { ptr, ptr }
%struct.QTailQLink = type { ptr, ptr }
%struct.MirrorBlockJob = type { %struct.BlockJob, ptr, ptr, ptr, ptr, ptr, ptr, ptr, i8, i32, i8, i32, i32, i32, i8, i8, i64, i64, i64, ptr, ptr, ptr, ptr, %struct.anon.14, i32, i64, ptr, i32, i64, %union.anon.15, i32, i8, i32, i32, i8, i32, i64, i8, i8 }
%struct.BlockJob = type { %struct.Job, i32, i64, %struct.RateLimit, ptr, %struct.Notifier, %struct.Notifier, %struct.Notifier, %struct.Notifier, %struct.Notifier, ptr }
%struct.Job = type { ptr, ptr, ptr, i8, i8, ptr, ptr, %struct.ProgressMeter, ptr, i32, i32, %struct.QEMUTimer, i32, i8, i8, i8, i8, i8, i8, i32, ptr, %struct.NotifierList, %struct.NotifierList, %struct.NotifierList, %struct.NotifierList, %struct.NotifierList, %struct.anon.11, ptr, %struct.anon.12 }
%struct.ProgressMeter = type { i64, i64, %struct.QemuMutex }
%struct.QEMUTimer = type { i64, ptr, ptr, ptr, ptr, i32, i32 }
%struct.NotifierList = type { %struct.anon.10 }
%struct.anon.10 = type { ptr }
%struct.anon.11 = type { ptr, ptr }
%struct.anon.12 = type { ptr, ptr }
%struct.RateLimit = type { %struct.QemuMutex, i64, i64, i64, i64, i64 }
%struct.Notifier = type { ptr, %struct.anon.13 }
%struct.anon.13 = type { ptr, ptr }
%struct.anon.14 = type { ptr, ptr }
%union.anon.15 = type { %struct.QTailQLink }

; Function Attrs: nounwind sspstrong uwtable
define internal zeroext i1 @mirror_cancel(ptr noundef %job, i1 noundef zeroext %force) #0 {
entry:
  %job.addr = alloca ptr, align 8
  %force.addr = alloca i8, align 1
  %s = alloca ptr, align 8
  %__mptr = alloca ptr, align 8
  %tmp = alloca ptr, align 8
  %target = alloca ptr, align 8
  store ptr %job, ptr %job.addr, align 8
  %frombool = zext i1 %force to i8
  store i8 %frombool, ptr %force.addr, align 1
  %0 = load ptr, ptr %job.addr, align 8
  store ptr %0, ptr %__mptr, align 8
  %1 = load ptr, ptr %__mptr, align 8
  %add.ptr = getelementptr i8, ptr %1, i64 0
  store ptr %add.ptr, ptr %tmp, align 8
  %2 = load ptr, ptr %tmp, align 8
  store ptr %2, ptr %s, align 8
  %3 = load ptr, ptr %s, align 8
  %target1 = getelementptr inbounds %struct.MirrorBlockJob, ptr %3, i32 0, i32 1
  %4 = load ptr, ptr %target1, align 8
  %call = call ptr @blk_bs(ptr noundef %4)
  store ptr %call, ptr %target, align 8
  %5 = load i8, ptr %force.addr, align 1
  %tobool = trunc i8 %5 to i1
  br i1 %tobool, label %lor.end, label %lor.rhs

lor.rhs:                                          ; preds = %entry
  %6 = load ptr, ptr %job.addr, align 8
  %call2 = call zeroext i1 @job_is_ready(ptr noundef %6)
  %lnot = xor i1 %call2, true
  br label %lor.end

lor.end:                                          ; preds = %lor.rhs, %entry
  %7 = phi i1 [ true, %entry ], [ %lnot, %lor.rhs ]
  %frombool3 = zext i1 %7 to i8
  store i8 %frombool3, ptr %force.addr, align 1
  %8 = load i8, ptr %force.addr, align 1
  %tobool4 = trunc i8 %8 to i1
  br i1 %tobool4, label %if.then, label %if.end

if.then:                                          ; preds = %lor.end
  %9 = load ptr, ptr %target, align 8
  call void @bdrv_cancel_in_flight(ptr noundef %9)
  br label %if.end

if.end:                                           ; preds = %if.then, %lor.end
  %10 = load i8, ptr %force.addr, align 1
  %tobool5 = trunc i8 %10 to i1
  ret i1 %tobool5
}