; Function Attrs: nounwind sspstrong uwtable
define internal noundef zeroext i1 @mirror_cancel(ptr noundef %job, i1 noundef zeroext %force) #0 {
entry:
  %target1 = getelementptr inbounds nuw i8, ptr %job, i64 520
  %0 = load ptr, ptr %target1, align 8
  %call = tail call ptr @blk_bs(ptr noundef %0) #12
  br i1 %force, label %if.then, label %lor.end

lor.end:                                          ; preds = %entry
  %call2 = tail call zeroext i1 @job_is_ready(ptr noundef nonnull %job) #12
  br i1 %call2, label %if.end, label %if.then

if.then:                                          ; preds = %entry, %lor.end
  tail call void @bdrv_cancel_in_flight(ptr noundef %call) #12
  br label %if.end

if.end:                                           ; preds = %if.then, %lor.end
  %1 = phi i1 [ true, %if.then ], [ false, %lor.end ]
  ret i1 %1
}